; Function Attrs: mustprogress uwtable
define hidden void @_ZN16fpa2bv_converter11mk_float_geEP4sortR7obj_refI4expr11ast_managerES6_S6_(ptr noundef nonnull align 8 dereferenceable(496) %0, ptr noundef readnone captures(none) %1, ptr noundef nonnull readonly align 8 captures(none) dereferenceable(16) %2, ptr noundef nonnull readonly align 8 captures(none) dereferenceable(16) %3, ptr noundef nonnull align 8 dereferenceable(16) %4) local_unnamed_addr #3 align 2 personality ptr @__gxx_personality_v0 {
  %6 = alloca %class.obj_ref, align 8
  %7 = alloca %class.obj_ref, align 8
  call void @llvm.lifetime.start.p0(i64 16, ptr nonnull %6) #23
  %8 = getelementptr inbounds nuw i8, ptr %0, i64 8
  %9 = load ptr, ptr %8, align 8, !tbaa !130
  store ptr null, ptr %6, align 8, !tbaa !164
  %10 = getelementptr inbounds nuw i8, ptr %6, i64 8
  store ptr %9, ptr %10, align 8, !tbaa !6
  call void @llvm.lifetime.start.p0(i64 16, ptr nonnull %7) #23
  store ptr null, ptr %7, align 8, !tbaa !164
  %11 = getelementptr inbounds nuw i8, ptr %7, i64 8
  store ptr %9, ptr %11, align 8, !tbaa !6
  invoke void @_ZN16fpa2bv_converter11mk_float_gtEP4sortR7obj_refI4expr11ast_managerES6_S6_(ptr noundef nonnull align 8 dereferenceable(496) %0, ptr noundef %1, ptr noundef nonnull align 8 dereferenceable(16) %2, ptr noundef nonnull align 8 dereferenceable(16) %3, ptr noundef nonnull align 8 dereferenceable(16) %6)
          to label %12 unwind label %40

12:                                               ; preds = %5
  invoke void @_ZN16fpa2bv_converter11mk_float_eqEP4sortR7obj_refI4expr11ast_managerES6_S6_(ptr noundef nonnull align 8 dereferenceable(496) %0, ptr poison, ptr noundef nonnull align 8 dereferenceable(16) %2, ptr noundef nonnull align 8 dereferenceable(16) %3, ptr noundef nonnull align 8 dereferenceable(16) %7)
          to label %13 unwind label %40

13:                                               ; preds = %12
  %14 = getelementptr inbounds nuw i8, ptr %0, i64 16
  %15 = load ptr, ptr %6, align 8, !tbaa !164
  %16 = load ptr, ptr %7, align 8, !tbaa !164
  invoke void @_ZN13bool_rewriter5mk_orEP4exprS1_R7obj_refIS0_11ast_managerE(ptr noundef nonnull align 8 dereferenceable(72) %14, ptr noundef %15, ptr noundef %16, ptr noundef nonnull align 8 dereferenceable(16) %4)
          to label %17 unwind label %40

17:                                               ; preds = %13
  %18 = load ptr, ptr %7, align 8, !tbaa !164
  %.not.i.i = icmp eq ptr %18, null
  br i1 %.not.i.i, label %_ZN7obj_refI4expr11ast_managerED2Ev.exit, label %19

19:                                               ; preds = %17
  %20 = load ptr, ptr %11, align 8, !tbaa !166
  %21 = getelementptr inbounds nuw i8, ptr %18, i64 8
  %22 = load i32, ptr %21, align 4, !tbaa !125
  %23 = add i32 %22, -1
  store i32 %23, ptr %21, align 4, !tbaa !125
  %24 = icmp eq i32 %23, 0
  br i1 %24, label %25, label %_ZN7obj_refI4expr11ast_managerED2Ev.exit

25:                                               ; preds = %19
  invoke void @_ZN11ast_manager11delete_nodeEP3ast(ptr noundef nonnull align 8 dereferenceable(976) %20, ptr noundef nonnull %18)
          to label %_ZN7obj_refI4expr11ast_managerED2Ev.exit unwind label %26

26:                                               ; preds = %25
  %27 = landingpad { ptr, i32 }
          catch ptr null
  %28 = extractvalue { ptr, i32 } %27, 0
  call void @__clang_call_terminate(ptr %28) #24
  unreachable

_ZN7obj_refI4expr11ast_managerED2Ev.exit:         ; preds = %17, %19, %25
  call void @llvm.lifetime.end.p0(i64 16, ptr nonnull %7) #23
  %29 = load ptr, ptr %6, align 8, !tbaa !164
  %.not.i.i9 = icmp eq ptr %29, null
  br i1 %.not.i.i9, label %_ZN7obj_refI4expr11ast_managerED2Ev.exit10, label %30

30:                                               ; preds = %_ZN7obj_refI4expr11ast_managerED2Ev.exit
  %31 = load ptr, ptr %10, align 8, !tbaa !166
  %32 = getelementptr inbounds nuw i8, ptr %29, i64 8
  %33 = load i32, ptr %32, align 4, !tbaa !125
  %34 = add i32 %33, -1
  store i32 %34, ptr %32, align 4, !tbaa !125
  %35 = icmp eq i32 %34, 0
  br i1 %35, label %36, label %_ZN7obj_refI4expr11ast_managerED2Ev.exit10

36:                                               ; preds = %30
  invoke void @_ZN11ast_manager11delete_nodeEP3ast(ptr noundef nonnull align 8 dereferenceable(976) %31, ptr noundef nonnull %29)
          to label %_ZN7obj_refI4expr11ast_managerED2Ev.exit10 unwind label %37

37:                                               ; preds = %36
  %38 = landingpad { ptr, i32 }
          catch ptr null
  %39 = extractvalue { ptr, i32 } %38, 0
  call void @__clang_call_terminate(ptr %39) #24
  unreachable

_ZN7obj_refI4expr11ast_managerED2Ev.exit10:       ; preds = %_ZN7obj_refI4expr11ast_managerED2Ev.exit, %30, %36
  call void @llvm.lifetime.end.p0(i64 16, ptr nonnull %6) #23
  ret void

40:                                               ; preds = %13, %12, %5
  %41 = landingpad { ptr, i32 }
          cleanup
  call void @_ZN7obj_refI4expr11ast_managerED2Ev(ptr noundef nonnull align 8 dereferenceable(16) %7) #23
  call void @llvm.lifetime.end.p0(i64 16, ptr nonnull %7) #23
  call void @_ZN7obj_refI4expr11ast_managerED2Ev(ptr noundef nonnull align 8 dereferenceable(16) %6) #23
  call void @llvm.lifetime.end.p0(i64 16, ptr nonnull %6) #23
  resume { ptr, i32 } %41
}